; Function Attrs: mustprogress uwtable
define internal void @_ZN7rocksdb12_GLOBAL__N_121TwoLevelIndexIterator4PrevEv(ptr noundef nonnull align 8 dereferenceable(160) %this) unnamed_addr #0 align 2 {
entry:
  %second_level_iter_ = getelementptr inbounds i8, ptr %this, i64 88
  %0 = load ptr, ptr %second_level_iter_, align 8
  %vtable.i = load ptr, ptr %0, align 8
  %vfn.i = getelementptr inbounds i8, ptr %vtable.i, i64 80
  %1 = load ptr, ptr %vfn.i, align 8
  tail call void %1(ptr noundef nonnull align 8 dereferenceable(40) %0)
  %2 = load ptr, ptr %second_level_iter_, align 8
  %vtable.i.i = load ptr, ptr %2, align 8
  %vfn.i.i = getelementptr inbounds i8, ptr %vtable.i.i, i64 24
  %3 = load ptr, ptr %vfn.i.i, align 8
  %call.i.i = tail call noundef zeroext i1 %3(ptr noundef nonnull align 8 dereferenceable(40) %2)
  %valid_.i.i = getelementptr inbounds i8, ptr %this, i64 120
  %frombool.i.i = zext i1 %call.i.i to i8
  store i8 %frombool.i.i, ptr %valid_.i.i, align 8
  br i1 %call.i.i, label %if.then.i.i, label %_ZN7rocksdb19IteratorWrapperBaseINS_10IndexValueEE4PrevEv.exit

if.then.i.i:                                      ; preds = %entry
  %4 = load ptr, ptr %second_level_iter_, align 8
  %vtable4.i.i = load ptr, ptr %4, align 8
  %vfn5.i.i = getelementptr inbounds i8, ptr %vtable4.i.i, i64 88
  %5 = load ptr, ptr %vfn5.i.i, align 8
  %call6.i.i = tail call { ptr, i64 } %5(ptr noundef nonnull align 8 dereferenceable(40) %4)
  %6 = extractvalue { ptr, i64 } %call6.i.i, 0
  %7 = extractvalue { ptr, i64 } %call6.i.i, 1
  %result_.i.i = getelementptr inbounds i8, ptr %this, i64 96
  store ptr %6, ptr %result_.i.i, align 8
  %ref.tmp.sroa.2.0.key.sroa_idx.i.i = getelementptr inbounds i8, ptr %this, i64 104
  store i64 %7, ptr %ref.tmp.sroa.2.0.key.sroa_idx.i.i, align 8
  %bound_check_result.i.i = getelementptr inbounds i8, ptr %this, i64 112
  store i8 0, ptr %bound_check_result.i.i, align 8
  %value_prepared.i.i = getelementptr inbounds i8, ptr %this, i64 113
  store i8 0, ptr %value_prepared.i.i, align 1
  br label %_ZN7rocksdb19IteratorWrapperBaseINS_10IndexValueEE4PrevEv.exit

_ZN7rocksdb19IteratorWrapperBaseINS_10IndexValueEE4PrevEv.exit: ; preds = %entry, %if.then.i.i
  tail call fastcc void @_ZN7rocksdb12_GLOBAL__N_121TwoLevelIndexIterator27SkipEmptyDataBlocksBackwardEv(ptr noundef nonnull align 8 dereferenceable(160) %this)
  ret void
}